; Function Attrs: mustprogress nofree norecurse nosync nounwind willreturn memory(none) uwtable
define float @Gia_ManSwiComputeSwitching(i32 noundef %0, i32 noundef %1) local_unnamed_addr #8 {
  %3 = shl nsw i32 %1, 5
  %4 = sitofp i32 %0 to float
  %5 = fmul float %4, 2.000000e+00
  %6 = sitofp i32 %3 to float
  %7 = fdiv float %5, %6
  %8 = sub nsw i32 %3, %0
  %9 = sitofp i32 %8 to float
  %10 = fmul float %7, %9
  %11 = fdiv float %10, %6
  ret float %11
}